; Function Attrs: null_pointer_is_valid sspstrong uwtable
define internal range(i32 -268435456, 268435456) i32 @dissect_BindingID_PDU(ptr noundef %0, ptr noundef %1, ptr noundef %2, ptr readnone captures(none) %3) #0 {
  %5 = alloca ptr, align 8
  %6 = alloca %struct._asn1_ctx_t, align 8
  call void @llvm.lifetime.start.p0(i64 208, ptr nonnull %6) #4
  call void @asn1_ctx_init(ptr noundef nonnull %6, i32 noundef 1, i1 noundef zeroext true, ptr noundef %1)
  %7 = load i32, ptr @hf_rnsap_BindingID_PDU, align 4
  call void @llvm.lifetime.start.p0(i64 8, ptr nonnull %5) #4
  store ptr null, ptr %5, align 8
  %8 = call i32 @dissect_per_octet_string(ptr noundef %0, i32 noundef 0, ptr noundef nonnull %6, ptr noundef %2, i32 noundef %7, i32 noundef 1, i32 noundef 4, i1 noundef zeroext true, ptr noundef nonnull %5)
  %9 = load ptr, ptr %5, align 8
  %.not.i = icmp eq ptr %9, null
  br i1 %.not.i, label %dissect_rnsap_BindingID.exit, label %10

10:                                               ; preds = %4
  %11 = call i32 @tvb_reported_length(ptr noundef nonnull %9)
  %12 = icmp ugt i32 %11, 1
  br i1 %12, label %13, label %dissect_rnsap_BindingID.exit

13:                                               ; preds = %10
  %14 = load ptr, ptr %5, align 8
  %15 = call zeroext i16 @tvb_get_ntohs(ptr noundef %14, i32 noundef 0)
  %16 = getelementptr inbounds nuw i8, ptr %6, i64 24
  %17 = load ptr, ptr %16, align 8
  %18 = zext i16 %15 to i32
  call void (ptr, ptr, ...) @proto_item_append_text(ptr noundef %17, ptr noundef nonnull @.str.8801, i32 noundef %18)
  br label %dissect_rnsap_BindingID.exit

dissect_rnsap_BindingID.exit:                     ; preds = %4, %10, %13
  call void @llvm.lifetime.end.p0(i64 8, ptr nonnull %5) #4
  %19 = add i32 %8, 7
  %20 = ashr i32 %19, 3
  call void @llvm.lifetime.end.p0(i64 208, ptr nonnull %6) #4
  ret i32 %20
}